; Function Attrs: nounwind uwtable
define internal fastcc ptr @llvm_debug_subarray_type(ptr nocapture noundef readonly %0, ptr noundef %1) unnamed_addr #0 {
  %3 = alloca [2 x ptr], align 16
  %4 = getelementptr inbounds i8, ptr %1, i64 16
  %5 = load ptr, ptr %4, align 8
  %6 = getelementptr inbounds i8, ptr %0, i64 296
  %7 = getelementptr inbounds i8, ptr %0, i64 304
  %8 = load ptr, ptr %7, align 8
  %9 = load i32, ptr @id_counter, align 4
  %10 = add i32 %9, 1
  store i32 %10, ptr @id_counter, align 4
  %11 = tail call i64 @strlen(ptr noundef nonnull dereferenceable(1) %5) #9
  %12 = getelementptr inbounds i8, ptr %0, i64 328
  %13 = load ptr, ptr %12, align 8
  %14 = load i16, ptr %6, align 8
  %15 = and i16 %14, 255
  %16 = zext nneg i16 %15 to i32
  %17 = tail call i32 @type_size(ptr noundef %1) #8
  %18 = shl i32 %17, 3
  %19 = zext i32 %18 to i64
  %20 = tail call i32 @type_abi_alignment(ptr noundef %1) #8
  %21 = shl i32 %20, 3
  %22 = tail call i64 @strlen(ptr noundef nonnull dereferenceable(1) %5) #9
  %23 = tail call ptr @LLVMDIBuilderCreateReplaceableCompositeType(ptr noundef %8, i32 noundef %9, ptr noundef %5, i64 noundef %11, ptr noundef null, ptr noundef %13, i32 noundef 0, i32 noundef %16, i64 noundef %19, i32 noundef %21, i32 noundef 0, ptr noundef %5, i64 noundef %22) #8
  %24 = getelementptr inbounds i8, ptr %1, i64 48
  store ptr %23, ptr %24, align 8
  %25 = getelementptr inbounds i8, ptr %1, i64 56
  %26 = load ptr, ptr %25, align 8
  %27 = tail call ptr @type_get_ptr(ptr noundef %26) #8
  %28 = load ptr, ptr %7, align 8
  %29 = tail call i32 @type_size(ptr noundef %27) #8
  %30 = shl i32 %29, 3
  %31 = zext i32 %30 to i64
  %32 = tail call i32 @type_abi_alignment(ptr noundef %27) #8
  %33 = shl i32 %32, 3
  %34 = tail call fastcc ptr @llvm_get_debug_type_internal(ptr noundef %0, ptr noundef %27, ptr noundef %23)
  %35 = tail call ptr @LLVMDIBuilderCreateMemberType(ptr noundef %28, ptr noundef %23, ptr noundef nonnull @.str.8, i64 noundef 3, ptr noundef null, i32 noundef 0, i64 noundef %31, i32 noundef %33, i64 noundef 0, i32 noundef 0, ptr noundef %34) #8
  store ptr %35, ptr %3, align 16
  %36 = getelementptr inbounds i8, ptr %3, i64 8
  %37 = load ptr, ptr @type_usz, align 8
  %38 = load ptr, ptr @type_voidptr, align 8
  %39 = tail call i32 @type_size(ptr noundef %38) #8
  %40 = load ptr, ptr %7, align 8
  %41 = tail call i32 @type_size(ptr noundef %37) #8
  %42 = shl i32 %41, 3
  %43 = zext i32 %42 to i64
  %44 = tail call i32 @type_abi_alignment(ptr noundef %37) #8
  %45 = shl i32 %44, 3
  %46 = shl i32 %39, 3
  %47 = zext i32 %46 to i64
  %48 = tail call fastcc ptr @llvm_get_debug_type_internal(ptr noundef %0, ptr noundef %37, ptr noundef %23)
  %49 = tail call ptr @LLVMDIBuilderCreateMemberType(ptr noundef %40, ptr noundef %23, ptr noundef nonnull @.str.9, i64 noundef 3, ptr noundef null, i32 noundef 0, i64 noundef %43, i32 noundef %45, i64 noundef %47, i32 noundef 0, ptr noundef %48) #8
  store ptr %49, ptr %36, align 8
  %50 = load ptr, ptr %4, align 8
  %51 = call fastcc ptr @llvm_get_debug_struct(ptr noundef %0, ptr noundef %1, ptr noundef %50, ptr noundef nonnull %3, i32 noundef 2, ptr noundef null, ptr noundef null)
  ret ptr %51
}